target datalayout = "e-m:e-p270:32:32-p271:32:32-p272:64:64-i64:64-i128:128-f80:128-n8:16:32:64-S128"
target triple = "x86_64-pc-linux-gnu"

%struct.zskiplistNode = type { ptr, double, ptr, [0 x %struct.zskiplistLevel] }
%struct.zskiplistLevel = type { ptr, i64 }
%struct.zskiplist = type { ptr, ptr, i64, i32 }
%struct.redisObject = type { i32, i32, ptr }
%struct.zset = type { ptr, ptr }
%struct.dict = type { ptr, [2 x ptr], [2 x i64], i64, i16, [2 x i8], i16, [0 x ptr] }

@.str.1 = private unnamed_addr constant [9 x i8] c"t_zset.c\00", align 1
@.str.9 = private unnamed_addr constant [28 x i8] c"Unknown sorted set encoding\00", align 1
@.str.15 = private unnamed_addr constant [20 x i8] c"o->type == OBJ_ZSET\00", align 1

; Function Attrs: nounwind uwtable
define dso_local i32 @zzlLength(ptr noundef %0) #0 {
  %2 = alloca ptr, align 8
  store ptr %0, ptr %2, align 8, !tbaa !11
  %3 = load ptr, ptr %2, align 8, !tbaa !11
  %4 = call i64 @lpLength(ptr noundef %3)
  %5 = udiv i64 %4, 2
  %6 = trunc i64 %5 to i32
  ret i32 %6
}

; Function Attrs: nounwind uwtable
define dso_local i64 @zsetLength(ptr noundef %0) #0 {
  %2 = alloca ptr, align 8
  %3 = alloca i64, align 8
  store ptr %0, ptr %2, align 8, !tbaa !78
  call void @llvm.lifetime.start.p0(i64 8, ptr %3) #12
  store i64 0, ptr %3, align 8, !tbaa !31
  %4 = load ptr, ptr %2, align 8, !tbaa !78
  %5 = load i32, ptr %4, align 8
  %6 = lshr i32 %5, 4
  %7 = and i32 %6, 15
  %8 = icmp eq i32 %7, 11
  br i1 %8, label %9, label %15

9:                                                ; preds = %1
  %10 = load ptr, ptr %2, align 8, !tbaa !78
  %11 = getelementptr inbounds nuw %struct.redisObject, ptr %10, i32 0, i32 2
  %12 = load ptr, ptr %11, align 8, !tbaa !84
  %13 = call i32 @zzlLength(ptr noundef %12)
  %14 = zext i32 %13 to i64
  store i64 %14, ptr %3, align 8, !tbaa !31
  br label %31

15:                                               ; preds = %1
  %16 = load ptr, ptr %2, align 8, !tbaa !78
  %17 = load i32, ptr %16, align 8
  %18 = lshr i32 %17, 4
  %19 = and i32 %18, 15
  %20 = icmp eq i32 %19, 7
  br i1 %20, label %21, label %29

21:                                               ; preds = %15
  %22 = load ptr, ptr %2, align 8, !tbaa !78
  %23 = getelementptr inbounds nuw %struct.redisObject, ptr %22, i32 0, i32 2
  %24 = load ptr, ptr %23, align 8, !tbaa !84
  %25 = getelementptr inbounds nuw %struct.zset, ptr %24, i32 0, i32 1
  %26 = load ptr, ptr %25, align 8, !tbaa !112
  %27 = getelementptr inbounds nuw %struct.zskiplist, ptr %26, i32 0, i32 2
  %28 = load i64, ptr %27, align 8, !tbaa !21
  store i64 %28, ptr %3, align 8, !tbaa !31
  br label %30

29:                                               ; preds = %15
  call void (ptr, i32, ptr, ...) @_serverPanic(ptr noundef @.str.1, i32 noundef 1210, ptr noundef @.str.9)
  call void @abort() #14
  unreachable

30:                                               ; preds = %21
  br label %31

31:                                               ; preds = %30, %9
  %32 = load i64, ptr %3, align 8, !tbaa !31
  call void @llvm.lifetime.end.p0(i64 8, ptr %3) #12
  ret i64 %32
}

; Function Attrs: nounwind uwtable
define dso_local ptr @zsetDup(ptr noundef %0) #0 {
  %2 = alloca ptr, align 8
  %3 = alloca ptr, align 8
  %4 = alloca ptr, align 8
  %5 = alloca ptr, align 8
  %6 = alloca ptr, align 8
  %7 = alloca i64, align 8
  %8 = alloca ptr, align 8
  %9 = alloca ptr, align 8
  %10 = alloca ptr, align 8
  %11 = alloca ptr, align 8
  %12 = alloca i64, align 8
  %13 = alloca ptr, align 8
  %14 = alloca ptr, align 8
  store ptr %0, ptr %2, align 8, !tbaa !78
  call void @llvm.lifetime.start.p0(i64 8, ptr %3) #12
  call void @llvm.lifetime.start.p0(i64 8, ptr %4) #12
  call void @llvm.lifetime.start.p0(i64 8, ptr %5) #12
  %15 = load ptr, ptr %2, align 8, !tbaa !78
  %16 = load i32, ptr %15, align 8
  %17 = and i32 %16, 15
  %18 = icmp eq i32 %17, 3
  %19 = xor i1 %18, true
  %20 = xor i1 %19, true
  %21 = zext i1 %20 to i32
  %22 = sext i32 %21 to i64
  %23 = call i64 @llvm.expect.i64(i64 %22, i64 1)
  %24 = icmp ne i64 %23, 0
  br i1 %24, label %25, label %26

25:                                               ; preds = %1
  br label %28

26:                                               ; preds = %1
  call void @_serverAssert(ptr noundef @.str.15, ptr noundef @.str.1, i32 noundef 1672)
  call void @abort() #14
  unreachable

27:                                               ; No predecessors!
  br label %28

28:                                               ; preds = %27, %25
  %29 = load ptr, ptr %2, align 8, !tbaa !78
  %30 = load i32, ptr %29, align 8
  %31 = lshr i32 %30, 4
  %32 = and i32 %31, 15
  %33 = icmp eq i32 %32, 11
  br i1 %33, label %34, label %51

34:                                               ; preds = %28
  call void @llvm.lifetime.start.p0(i64 8, ptr %6) #12
  %35 = load ptr, ptr %2, align 8, !tbaa !78
  %36 = getelementptr inbounds nuw %struct.redisObject, ptr %35, i32 0, i32 2
  %37 = load ptr, ptr %36, align 8, !tbaa !84
  store ptr %37, ptr %6, align 8, !tbaa !11
  call void @llvm.lifetime.start.p0(i64 8, ptr %7) #12
  %38 = load ptr, ptr %6, align 8, !tbaa !11
  %39 = call i64 @lpBytes(ptr noundef %38)
  store i64 %39, ptr %7, align 8, !tbaa !31
  call void @llvm.lifetime.start.p0(i64 8, ptr %8) #12
  %40 = load i64, ptr %7, align 8, !tbaa !31
  %41 = call noalias ptr @zmalloc(i64 noundef %40) #13
  store ptr %41, ptr %8, align 8, !tbaa !11
  %42 = load ptr, ptr %8, align 8, !tbaa !11
  %43 = load ptr, ptr %6, align 8, !tbaa !11
  %44 = load i64, ptr %7, align 8, !tbaa !31
  call void @llvm.memcpy.p0.p0.i64(ptr align 1 %42, ptr align 1 %43, i64 %44, i1 false)
  %45 = load ptr, ptr %8, align 8, !tbaa !11
  %46 = call ptr @createObject(i32 noundef 3, ptr noundef %45)
  store ptr %46, ptr %3, align 8, !tbaa !78
  %47 = load ptr, ptr %3, align 8, !tbaa !78
  %48 = load i32, ptr %47, align 8
  %49 = and i32 %48, -241
  %50 = or i32 %49, 176
  store i32 %50, ptr %47, align 8
  call void @llvm.lifetime.end.p0(i64 8, ptr %8) #12
  call void @llvm.lifetime.end.p0(i64 8, ptr %7) #12
  call void @llvm.lifetime.end.p0(i64 8, ptr %6) #12
  br label %121

51:                                               ; preds = %28
  %52 = load ptr, ptr %2, align 8, !tbaa !78
  %53 = load i32, ptr %52, align 8
  %54 = lshr i32 %53, 4
  %55 = and i32 %54, 15
  %56 = icmp eq i32 %55, 7
  br i1 %56, label %57, label %119

57:                                               ; preds = %51
  %58 = call ptr @createZsetObject()
  store ptr %58, ptr %3, align 8, !tbaa !78
  %59 = load ptr, ptr %2, align 8, !tbaa !78
  %60 = getelementptr inbounds nuw %struct.redisObject, ptr %59, i32 0, i32 2
  %61 = load ptr, ptr %60, align 8, !tbaa !84
  store ptr %61, ptr %4, align 8, !tbaa !137
  %62 = load ptr, ptr %3, align 8, !tbaa !78
  %63 = getelementptr inbounds nuw %struct.redisObject, ptr %62, i32 0, i32 2
  %64 = load ptr, ptr %63, align 8, !tbaa !84
  store ptr %64, ptr %5, align 8, !tbaa !137
  %65 = load ptr, ptr %5, align 8, !tbaa !137
  %66 = getelementptr inbounds nuw %struct.zset, ptr %65, i32 0, i32 0
  %67 = load ptr, ptr %66, align 8, !tbaa !139
  %68 = load ptr, ptr %4, align 8, !tbaa !137
  %69 = getelementptr inbounds nuw %struct.zset, ptr %68, i32 0, i32 0
  %70 = load ptr, ptr %69, align 8, !tbaa !139
  %71 = getelementptr inbounds nuw %struct.dict, ptr %70, i32 0, i32 2
  %72 = getelementptr inbounds [2 x i64], ptr %71, i64 0, i64 0
  %73 = load i64, ptr %72, align 8, !tbaa !31
  %74 = load ptr, ptr %4, align 8, !tbaa !137
  %75 = getelementptr inbounds nuw %struct.zset, ptr %74, i32 0, i32 0
  %76 = load ptr, ptr %75, align 8, !tbaa !139
  %77 = getelementptr inbounds nuw %struct.dict, ptr %76, i32 0, i32 2
  %78 = getelementptr inbounds [2 x i64], ptr %77, i64 0, i64 1
  %79 = load i64, ptr %78, align 8, !tbaa !31
  %80 = add i64 %73, %79
  %81 = call i32 @dictExpand(ptr noundef %67, i64 noundef %80)
  call void @llvm.lifetime.start.p0(i64 8, ptr %9) #12
  %82 = load ptr, ptr %4, align 8, !tbaa !137
  %83 = getelementptr inbounds nuw %struct.zset, ptr %82, i32 0, i32 1
  %84 = load ptr, ptr %83, align 8, !tbaa !112
  store ptr %84, ptr %9, align 8, !tbaa !16
  call void @llvm.lifetime.start.p0(i64 8, ptr %10) #12
  call void @llvm.lifetime.start.p0(i64 8, ptr %11) #12
  call void @llvm.lifetime.start.p0(i64 8, ptr %12) #12
  %85 = load ptr, ptr %2, align 8, !tbaa !78
  %86 = call i64 @zsetLength(ptr noundef %85)
  store i64 %86, ptr %12, align 8, !tbaa !31
  %87 = load ptr, ptr %9, align 8, !tbaa !16
  %88 = getelementptr inbounds nuw %struct.zskiplist, ptr %87, i32 0, i32 1
  %89 = load ptr, ptr %88, align 8, !tbaa !28
  store ptr %89, ptr %10, align 8, !tbaa !14
  br label %90

90:                                               ; preds = %94, %57
  %91 = load i64, ptr %12, align 8, !tbaa !31
  %92 = add nsw i64 %91, -1
  store i64 %92, ptr %12, align 8, !tbaa !31
  %93 = icmp ne i64 %91, 0
  br i1 %93, label %94, label %118

94:                                               ; preds = %90
  %95 = load ptr, ptr %10, align 8, !tbaa !14
  %96 = getelementptr inbounds nuw %struct.zskiplistNode, ptr %95, i32 0, i32 0
  %97 = load ptr, ptr %96, align 8, !tbaa !11
  store ptr %97, ptr %11, align 8, !tbaa !11
  call void @llvm.lifetime.start.p0(i64 8, ptr %13) #12
  %98 = load ptr, ptr %11, align 8, !tbaa !11
  %99 = call ptr @sdsdup(ptr noundef %98)
  store ptr %99, ptr %13, align 8, !tbaa !11
  call void @llvm.lifetime.start.p0(i64 8, ptr %14) #12
  %100 = load ptr, ptr %5, align 8, !tbaa !137
  %101 = getelementptr inbounds nuw %struct.zset, ptr %100, i32 0, i32 1
  %102 = load ptr, ptr %101, align 8, !tbaa !112
  %103 = load ptr, ptr %10, align 8, !tbaa !14
  %104 = getelementptr inbounds nuw %struct.zskiplistNode, ptr %103, i32 0, i32 1
  %105 = load double, ptr %104, align 8, !tbaa !9
  %106 = load ptr, ptr %13, align 8, !tbaa !11
  %107 = call ptr @zslInsert(ptr noundef %102, double noundef %105, ptr noundef %106)
  store ptr %107, ptr %14, align 8, !tbaa !14
  %108 = load ptr, ptr %5, align 8, !tbaa !137
  %109 = getelementptr inbounds nuw %struct.zset, ptr %108, i32 0, i32 0
  %110 = load ptr, ptr %109, align 8, !tbaa !139
  %111 = load ptr, ptr %13, align 8, !tbaa !11
  %112 = load ptr, ptr %14, align 8, !tbaa !14
  %113 = getelementptr inbounds nuw %struct.zskiplistNode, ptr %112, i32 0, i32 1
  %114 = call i32 @dictAdd(ptr noundef %110, ptr noundef %111, ptr noundef %113)
  %115 = load ptr, ptr %10, align 8, !tbaa !14
  %116 = getelementptr inbounds nuw %struct.zskiplistNode, ptr %115, i32 0, i32 2
  %117 = load ptr, ptr %116, align 8, !tbaa !14
  store ptr %117, ptr %10, align 8, !tbaa !14
  call void @llvm.lifetime.end.p0(i64 8, ptr %14) #12
  call void @llvm.lifetime.end.p0(i64 8, ptr %13) #12
  br label %90, !llvm.loop !145

118:                                              ; preds = %90
  call void @llvm.lifetime.end.p0(i64 8, ptr %12) #12
  call void @llvm.lifetime.end.p0(i64 8, ptr %11) #12
  call void @llvm.lifetime.end.p0(i64 8, ptr %10) #12
  call void @llvm.lifetime.end.p0(i64 8, ptr %9) #12
  br label %120

119:                                              ; preds = %51
  call void (ptr, i32, ptr, ...) @_serverPanic(ptr noundef @.str.1, i32 noundef 1707, ptr noundef @.str.9)
  call void @abort() #14
  unreachable

120:                                              ; preds = %118
  br label %121

121:                                              ; preds = %120, %34
  %122 = load ptr, ptr %3, align 8, !tbaa !78
  call void @llvm.lifetime.end.p0(i64 8, ptr %5) #12
  call void @llvm.lifetime.end.p0(i64 8, ptr %4) #12
  call void @llvm.lifetime.end.p0(i64 8, ptr %3) #12
  ret ptr %122
}