; Function Attrs: nounwind uwtable
define dso_local ptr @zsetDup(ptr noundef readonly captures(none) %0) local_unnamed_addr #0 {
  %2 = load i32, ptr %0, align 8
  %3 = and i32 %2, 15
  %4 = icmp eq i32 %3, 3
  br i1 %4, label %6, label %5, !prof !25

5:                                                ; preds = %1
  tail call void @_serverAssert(ptr noundef nonnull @.str.15, ptr noundef nonnull @.str.1, i32 noundef 1672) #18
  tail call void @abort() #19
  unreachable

6:                                                ; preds = %1
  %7 = lshr i32 %2, 4
  %8 = and i32 %7, 15
  switch i32 %8, label %63 [
    i32 11, label %9
    i32 7, label %18
  ]

9:                                                ; preds = %6
  %10 = getelementptr inbounds nuw i8, ptr %0, i64 8
  %11 = load ptr, ptr %10, align 8, !tbaa !75
  %12 = tail call i64 @lpBytes(ptr noundef %11) #18
  %13 = tail call noalias ptr @zmalloc(i64 noundef %12) #17
  tail call void @llvm.memcpy.p0.p0.i64(ptr align 1 %13, ptr align 1 %11, i64 %12, i1 false)
  %14 = tail call ptr @createObject(i32 noundef 3, ptr noundef %13) #18
  %15 = load i32, ptr %14, align 8
  %16 = and i32 %15, -241
  %17 = or disjoint i32 %16, 176
  store i32 %17, ptr %14, align 8
  br label %.loopexit

18:                                               ; preds = %6
  %19 = tail call ptr @createZsetObject() #18
  %20 = getelementptr inbounds nuw i8, ptr %0, i64 8
  %21 = load ptr, ptr %20, align 8, !tbaa !75
  %22 = getelementptr inbounds nuw i8, ptr %19, i64 8
  %23 = load ptr, ptr %22, align 8, !tbaa !75
  %24 = load ptr, ptr %23, align 8, !tbaa !125
  %25 = load ptr, ptr %21, align 8, !tbaa !125
  %26 = getelementptr inbounds nuw i8, ptr %25, i64 24
  %27 = load i64, ptr %26, align 8, !tbaa !26
  %28 = getelementptr inbounds nuw i8, ptr %25, i64 32
  %29 = load i64, ptr %28, align 8, !tbaa !26
  %30 = add i64 %29, %27
  %31 = tail call i32 @dictExpand(ptr noundef %24, i64 noundef %30) #18
  %32 = getelementptr inbounds nuw i8, ptr %21, i64 8
  %33 = load ptr, ptr %32, align 8, !tbaa !97
  %34 = load i32, ptr %0, align 8
  %35 = lshr i32 %34, 4
  %36 = and i32 %35, 15
  switch i32 %36, label %48 [
    i32 11, label %37
    i32 7, label %42
  ]

37:                                               ; preds = %18
  %38 = load ptr, ptr %20, align 8, !tbaa !75
  %39 = tail call i64 @lpLength(ptr noundef %38) #18
  %40 = lshr i64 %39, 1
  %41 = and i64 %40, 4294967295
  br label %zsetLength.exit

42:                                               ; preds = %18
  %43 = load ptr, ptr %20, align 8, !tbaa !75
  %44 = getelementptr inbounds nuw i8, ptr %43, i64 8
  %45 = load ptr, ptr %44, align 8, !tbaa !97
  %46 = getelementptr inbounds nuw i8, ptr %45, i64 16
  %47 = load i64, ptr %46, align 8, !tbaa !17
  br label %zsetLength.exit

48:                                               ; preds = %18
  tail call void (ptr, i32, ptr, ...) @_serverPanic(ptr noundef nonnull @.str.1, i32 noundef 1210, ptr noundef nonnull @.str.9) #18
  tail call void @abort() #19
  unreachable

zsetLength.exit:                                  ; preds = %37, %42
  %.0.i = phi i64 [ %41, %37 ], [ %47, %42 ]
  %.not32 = icmp eq i64 %.0.i, 0
  br i1 %.not32, label %.loopexit, label %.lr.ph

.lr.ph:                                           ; preds = %zsetLength.exit
  %49 = getelementptr inbounds nuw i8, ptr %33, i64 8
  %50 = getelementptr inbounds nuw i8, ptr %23, i64 8
  br label %51

51:                                               ; preds = %.lr.ph, %51
  %.029.in34 = phi ptr [ %49, %.lr.ph ], [ %62, %51 ]
  %.03033 = phi i64 [ %.0.i, %.lr.ph ], [ %52, %51 ]
  %52 = add nsw i64 %.03033, -1
  %.029 = load ptr, ptr %.029.in34, align 8, !tbaa !29
  %53 = load ptr, ptr %.029, align 8, !tbaa !9
  %54 = tail call ptr @sdsdup(ptr noundef %53) #18
  %55 = load ptr, ptr %50, align 8, !tbaa !97
  %56 = getelementptr inbounds nuw i8, ptr %.029, i64 8
  %57 = load double, ptr %56, align 8, !tbaa !5
  %58 = tail call ptr @zslInsert(ptr noundef %55, double noundef %57, ptr noundef %54)
  %59 = load ptr, ptr %23, align 8, !tbaa !125
  %60 = getelementptr inbounds nuw i8, ptr %58, i64 8
  %61 = tail call i32 @dictAdd(ptr noundef %59, ptr noundef %54, ptr noundef nonnull %60) #18
  %62 = getelementptr inbounds nuw i8, ptr %.029, i64 16
  %.not = icmp eq i64 %52, 0
  br i1 %.not, label %.loopexit, label %51, !llvm.loop !131

63:                                               ; preds = %6
  tail call void (ptr, i32, ptr, ...) @_serverPanic(ptr noundef nonnull @.str.1, i32 noundef 1707, ptr noundef nonnull @.str.9) #18
  tail call void @abort() #19
  unreachable

.loopexit:                                        ; preds = %51, %zsetLength.exit, %9
  %.0 = phi ptr [ %14, %9 ], [ %19, %zsetLength.exit ], [ %19, %51 ]
  ret ptr %.0
}